target datalayout = "e-m:e-p270:32:32-p271:32:32-p272:64:64-i64:64-i128:128-f80:128-n8:16:32:64-S128"
target triple = "x86_64-pc-linux-gnu"

%struct.rb_data_type_struct = type { ptr, %struct.anon, ptr, ptr, i64 }
%struct.anon = type { ptr, ptr, ptr, ptr, [1 x ptr] }

@ossl_x509name_type = internal constant %struct.rb_data_type_struct { ptr @.str.30, %struct.anon { ptr null, ptr @ossl_x509name_free, ptr null, ptr null, [1 x ptr] zeroinitializer }, ptr null, ptr null, i64 33 }, align 8
@eX509NameError = internal global i64 0, align 8
@rb_eRuntimeError = external global i64, align 8
@.str = private unnamed_addr constant [25 x i8] c"Name wasn't initialized.\00", align 1
@.str.40 = private unnamed_addr constant [19 x i8] c"X509_NAME_print_ex\00", align 1

; Function Attrs: nounwind sspstrong uwtable
define internal i64 @x509name_print(i64 noundef %0, i64 noundef %1) #0 {
  %3 = alloca i64, align 8
  %4 = alloca i64, align 8
  %5 = alloca ptr, align 8
  %6 = alloca ptr, align 8
  %7 = alloca i32, align 4
  store i64 %0, ptr %3, align 8, !tbaa !11
  store i64 %1, ptr %4, align 8, !tbaa !11
  call void @llvm.lifetime.start.p0(i64 8, ptr %5) #18
  call void @llvm.lifetime.start.p0(i64 8, ptr %6) #18
  call void @llvm.lifetime.start.p0(i64 4, ptr %7) #18
  br label %8

8:                                                ; preds = %2
  %9 = load i64, ptr %3, align 8, !tbaa !11
  %10 = call ptr @rb_check_typeddata(i64 noundef %9, ptr noundef @ossl_x509name_type)
  store ptr %10, ptr %5, align 8, !tbaa !6
  %11 = load ptr, ptr %5, align 8, !tbaa !6
  %12 = icmp ne ptr %11, null
  br i1 %12, label %15, label %13

13:                                               ; preds = %8
  %14 = load i64, ptr @rb_eRuntimeError, align 8, !tbaa !11
  call void (i64, ptr, ...) @ossl_raise(i64 noundef %14, ptr noundef @.str) #19
  unreachable

15:                                               ; preds = %8
  br label %16

16:                                               ; preds = %15
  br label %17

17:                                               ; preds = %16
  %18 = call ptr @BIO_s_mem()
  %19 = call ptr @BIO_new(ptr noundef %18)
  store ptr %19, ptr %6, align 8, !tbaa !50
  %20 = load ptr, ptr %6, align 8, !tbaa !50
  %21 = icmp ne ptr %20, null
  br i1 %21, label %24, label %22

22:                                               ; preds = %17
  %23 = load i64, ptr @eX509NameError, align 8, !tbaa !11
  call void (i64, ptr, ...) @ossl_raise(i64 noundef %23, ptr noundef null) #19
  unreachable

24:                                               ; preds = %17
  %25 = load ptr, ptr %6, align 8, !tbaa !50
  %26 = load ptr, ptr %5, align 8, !tbaa !6
  %27 = load i64, ptr %4, align 8, !tbaa !11
  %28 = call i32 @X509_NAME_print_ex(ptr noundef %25, ptr noundef %26, i32 noundef 0, i64 noundef %27)
  store i32 %28, ptr %7, align 4, !tbaa !17
  %29 = load i32, ptr %7, align 4, !tbaa !17
  %30 = icmp slt i32 %29, 0
  br i1 %30, label %37, label %31

31:                                               ; preds = %24
  %32 = load i64, ptr %4, align 8, !tbaa !11
  %33 = icmp eq i64 %32, 0
  br i1 %33, label %34, label %41

34:                                               ; preds = %31
  %35 = load i32, ptr %7, align 4, !tbaa !17
  %36 = icmp eq i32 %35, 0
  br i1 %36, label %37, label %41

37:                                               ; preds = %34, %24
  %38 = load ptr, ptr %6, align 8, !tbaa !50
  %39 = call i32 @BIO_free(ptr noundef %38)
  %40 = load i64, ptr @eX509NameError, align 8, !tbaa !11
  call void (i64, ptr, ...) @ossl_raise(i64 noundef %40, ptr noundef @.str.40) #19
  unreachable

41:                                               ; preds = %34, %31
  %42 = load ptr, ptr %6, align 8, !tbaa !50
  %43 = call i64 @ossl_membio2str(ptr noundef %42)
  call void @llvm.lifetime.end.p0(i64 4, ptr %7) #18
  call void @llvm.lifetime.end.p0(i64 8, ptr %6) #18
  call void @llvm.lifetime.end.p0(i64 8, ptr %5) #18
  ret i64 %43
}