; Function Attrs: nounwind sspstrong uwtable
define internal fastcc i64 @x509name_print(i64 noundef %0, i64 noundef %1) unnamed_addr #0 {
  %3 = tail call ptr @rb_check_typeddata(i64 noundef %0, ptr noundef nonnull @ossl_x509name_type) #8
  %.not = icmp eq ptr %3, null
  br i1 %.not, label %4, label %6

4:                                                ; preds = %2
  %5 = load i64, ptr @rb_eRuntimeError, align 8, !tbaa !6
  tail call void (i64, ptr, ...) @ossl_raise(i64 noundef %5, ptr noundef nonnull @.str) #9
  unreachable

6:                                                ; preds = %2
  %7 = tail call ptr @BIO_s_mem() #8
  %8 = tail call ptr @BIO_new(ptr noundef %7) #8
  %.not13 = icmp eq ptr %8, null
  br i1 %.not13, label %9, label %11

9:                                                ; preds = %6
  %10 = load i64, ptr @eX509NameError, align 8, !tbaa !6
  tail call void (i64, ptr, ...) @ossl_raise(i64 noundef %10, ptr noundef null) #9
  unreachable

11:                                               ; preds = %6
  %12 = tail call i32 @X509_NAME_print_ex(ptr noundef nonnull %8, ptr noundef nonnull %3, i32 noundef 0, i64 noundef %1) #8
  %13 = icmp slt i32 %12, 0
  br i1 %13, label %17, label %14

14:                                               ; preds = %11
  %15 = icmp eq i64 %1, 0
  %16 = icmp eq i32 %12, 0
  %or.cond = and i1 %15, %16
  br i1 %or.cond, label %17, label %20

17:                                               ; preds = %14, %11
  %18 = tail call i32 @BIO_free(ptr noundef nonnull %8) #8
  %19 = load i64, ptr @eX509NameError, align 8, !tbaa !6
  tail call void (i64, ptr, ...) @ossl_raise(i64 noundef %19, ptr noundef nonnull @.str.40) #9
  unreachable

20:                                               ; preds = %14
  %21 = tail call i64 @ossl_membio2str(ptr noundef nonnull %8) #8
  ret i64 %21
}